target datalayout = "e-m:e-p270:32:32-p271:32:32-p272:64:64-i64:64-i128:128-f80:128-n8:16:32:64-S128"
target triple = "x86_64-pc-linux-gnu"

%"class.llvm::pdb::NativeSourceFile" = type { %"class.llvm::pdb::IPDBSourceFile", ptr, i32, %"struct.llvm::codeview::FileChecksumEntry" }
%"class.llvm::pdb::IPDBSourceFile" = type { ptr }
%"struct.llvm::codeview::FileChecksumEntry" = type { i32, i8, %"class.llvm::ArrayRef" }
%"class.llvm::ArrayRef" = type { ptr, i64 }

@_ZTVN4llvm3pdb14IPDBSourceFileE = external unnamed_addr constant { [9 x ptr] }, align 8

; Function Attrs: mustprogress nounwind uwtable
define linkonce_odr hidden void @_ZN4llvm3pdb14IPDBSourceFileC2Ev(ptr noundef nonnull align 8 dereferenceable(8) %0) unnamed_addr #0 comdat align 2 {
  %2 = alloca ptr, align 8
  store ptr %0, ptr %2, align 8
  %3 = load ptr, ptr %2, align 8
  store ptr getelementptr inbounds inrange(-16, 56) ({ [9 x ptr] }, ptr @_ZTVN4llvm3pdb14IPDBSourceFileE, i32 0, i32 0, i32 2), ptr %3, align 8
  ret void
}

; Function Attrs: mustprogress nounwind uwtable
define dso_local void @_ZN4llvm3pdb16NativeSourceFileC2ERNS0_13NativeSessionEjRKNS_8codeview17FileChecksumEntryE(ptr noundef nonnull align 8 dereferenceable(48) %0, ptr noundef nonnull align 8 dereferenceable(584) %1, i32 noundef %2, ptr noundef nonnull align 8 dereferenceable(24) %3) unnamed_addr #0 align 2 {
  %5 = alloca ptr, align 8
  %6 = alloca ptr, align 8
  %7 = alloca i32, align 4
  %8 = alloca ptr, align 8
  store ptr %0, ptr %5, align 8
  store ptr %1, ptr %6, align 8
  store i32 %2, ptr %7, align 4
  store ptr %3, ptr %8, align 8
  %9 = load ptr, ptr %5, align 8
  call void @_ZN4llvm3pdb14IPDBSourceFileC2Ev(ptr noundef nonnull align 8 dereferenceable(8) %9) #9
  store ptr getelementptr inbounds inrange(-16, 56) ({ [9 x ptr] }, ptr @_ZTVN4llvm3pdb16NativeSourceFileE, i32 0, i32 0, i32 2), ptr %9, align 8
  %10 = getelementptr inbounds nuw %"class.llvm::pdb::NativeSourceFile", ptr %9, i32 0, i32 1
  %11 = load ptr, ptr %6, align 8
  store ptr %11, ptr %10, align 8
  %12 = getelementptr inbounds nuw %"class.llvm::pdb::NativeSourceFile", ptr %9, i32 0, i32 2
  %13 = load i32, ptr %7, align 4
  store i32 %13, ptr %12, align 8
  %14 = getelementptr inbounds nuw %"class.llvm::pdb::NativeSourceFile", ptr %9, i32 0, i32 3
  %15 = load ptr, ptr %8, align 8
  call void @llvm.memcpy.p0.p0.i64(ptr align 8 %14, ptr align 8 %15, i64 24, i1 false)
  ret void
}