; Function Attrs: mustprogress nofree norecurse nosync nounwind willreturn memory(argmem: readwrite) uwtable
define dso_local void @_ZN4llvm3pdb16NativeSourceFileC2ERNS0_13NativeSessionEjRKNS_8codeview17FileChecksumEntryE(ptr noundef nonnull writeonly align 8 captures(none) dereferenceable(48) initializes((0, 20), (24, 48)) %0, ptr noundef nonnull align 8 dereferenceable(584) %1, i32 noundef %2, ptr noundef nonnull readonly align 8 captures(none) dereferenceable(24) %3) unnamed_addr #0 align 2 {
  store ptr getelementptr inbounds nuw inrange(-16, 56) (i8, ptr @_ZTVN4llvm3pdb16NativeSourceFileE, i64 16), ptr %0, align 8
  %5 = getelementptr inbounds nuw i8, ptr %0, i64 8
  store ptr %1, ptr %5, align 8
  %6 = getelementptr inbounds nuw i8, ptr %0, i64 16
  store i32 %2, ptr %6, align 8
  %7 = getelementptr inbounds nuw i8, ptr %0, i64 24
  tail call void @llvm.memcpy.p0.p0.i64(ptr noundef nonnull align 8 dereferenceable(24) %7, ptr noundef nonnull align 8 dereferenceable(24) %3, i64 24, i1 false)
  ret void
}